; Function Attrs: mustprogress uwtable
define internal void @_ZN7testing8internal11MatcherBaseIRKPN12_GLOBAL__N_118ConstructionTesterEE12DescribeImplINS7_11ValuePolicyINS0_9EqMatcherIS4_EELb1EEEEEvRKS7_PSob(ptr noundef nonnull readonly align 8 captures(none) dereferenceable(24) %0, ptr noundef %1, i1 noundef zeroext %2) #4 align 2 {
  %4 = getelementptr inbounds nuw i8, ptr %0, i64 16
  br i1 %2, label %5, label %13

5:                                                ; preds = %3
  %6 = tail call noundef nonnull align 8 dereferenceable(8) ptr @_ZSt16__ostream_insertIcSt11char_traitsIcEERSt13basic_ostreamIT_T0_ES6_PKS3_l(ptr noundef nonnull align 8 dereferenceable(8) %1, ptr noundef nonnull @.str.101, i64 noundef 14)
  %7 = tail call noundef nonnull align 8 dereferenceable(8) ptr @_ZSt16__ostream_insertIcSt11char_traitsIcEERSt13basic_ostreamIT_T0_ES6_PKS3_l(ptr noundef nonnull align 8 dereferenceable(8) %1, ptr noundef nonnull @.str.100, i64 noundef 1)
  %.val.i = load ptr, ptr %4, align 8, !tbaa !839
  %8 = icmp eq ptr %.val.i, null
  br i1 %8, label %9, label %11

9:                                                ; preds = %5
  %10 = tail call noundef nonnull align 8 dereferenceable(8) ptr @_ZSt16__ostream_insertIcSt11char_traitsIcEERSt13basic_ostreamIT_T0_ES6_PKS3_l(ptr noundef nonnull align 8 dereferenceable(8) %1, ptr noundef nonnull @.str.190, i64 noundef 4)
  br label %_ZNK7testing8internal14ComparisonBaseINS0_9EqMatcherIPN12_GLOBAL__N_118ConstructionTesterEEES5_St8equal_toIvEE18DescribeNegationToEPSo.exit

11:                                               ; preds = %5
  %12 = tail call noundef nonnull align 8 dereferenceable(8) ptr @_ZNSo9_M_insertIPKvEERSoT_(ptr noundef nonnull align 8 dereferenceable(8) %1, ptr noundef nonnull %.val.i)
  br label %_ZNK7testing8internal14ComparisonBaseINS0_9EqMatcherIPN12_GLOBAL__N_118ConstructionTesterEEES5_St8equal_toIvEE18DescribeNegationToEPSo.exit

13:                                               ; preds = %3
  %14 = tail call noundef nonnull align 8 dereferenceable(8) ptr @_ZSt16__ostream_insertIcSt11char_traitsIcEERSt13basic_ostreamIT_T0_ES6_PKS3_l(ptr noundef nonnull align 8 dereferenceable(8) %1, ptr noundef nonnull @.str.102, i64 noundef 11)
  %15 = tail call noundef nonnull align 8 dereferenceable(8) ptr @_ZSt16__ostream_insertIcSt11char_traitsIcEERSt13basic_ostreamIT_T0_ES6_PKS3_l(ptr noundef nonnull align 8 dereferenceable(8) %1, ptr noundef nonnull @.str.100, i64 noundef 1)
  %.val.i4 = load ptr, ptr %4, align 8, !tbaa !839
  %16 = icmp eq ptr %.val.i4, null
  br i1 %16, label %17, label %19

17:                                               ; preds = %13
  %18 = tail call noundef nonnull align 8 dereferenceable(8) ptr @_ZSt16__ostream_insertIcSt11char_traitsIcEERSt13basic_ostreamIT_T0_ES6_PKS3_l(ptr noundef nonnull align 8 dereferenceable(8) %1, ptr noundef nonnull @.str.190, i64 noundef 4)
  br label %_ZNK7testing8internal14ComparisonBaseINS0_9EqMatcherIPN12_GLOBAL__N_118ConstructionTesterEEES5_St8equal_toIvEE18DescribeNegationToEPSo.exit

19:                                               ; preds = %13
  %20 = tail call noundef nonnull align 8 dereferenceable(8) ptr @_ZNSo9_M_insertIPKvEERSoT_(ptr noundef nonnull align 8 dereferenceable(8) %1, ptr noundef nonnull %.val.i4)
  br label %_ZNK7testing8internal14ComparisonBaseINS0_9EqMatcherIPN12_GLOBAL__N_118ConstructionTesterEEES5_St8equal_toIvEE18DescribeNegationToEPSo.exit

_ZNK7testing8internal14ComparisonBaseINS0_9EqMatcherIPN12_GLOBAL__N_118ConstructionTesterEEES5_St8equal_toIvEE18DescribeNegationToEPSo.exit: ; preds = %19, %17, %11, %9
  ret void
}